target datalayout = "e-m:e-p270:32:32-p271:32:32-p272:64:64-i64:64-i128:128-f80:128-n8:16:32:64-S128"
target triple = "x86_64-pc-linux-gnu"

@.str.8 = private unnamed_addr constant [1 x i8] zeroinitializer, align 1
@.str.74 = private unnamed_addr constant [23 x i8] c"missing value for '%s'\00", align 1
@git_gettext_enabled = external global i32, align 4
@.str.180 = private unnamed_addr constant [7 x i8] c"simple\00", align 1
@.str.185 = private unnamed_addr constant [13 x i8] c"push.default\00", align 1
@.str.186 = private unnamed_addr constant [8 x i8] c"nothing\00", align 1
@push_default = external global i32, align 4
@.str.187 = private unnamed_addr constant [9 x i8] c"matching\00", align 1
@.str.188 = private unnamed_addr constant [9 x i8] c"upstream\00", align 1
@.str.189 = private unnamed_addr constant [9 x i8] c"tracking\00", align 1
@.str.190 = private unnamed_addr constant [8 x i8] c"current\00", align 1
@.str.191 = private unnamed_addr constant [27 x i8] c"malformed value for %s: %s\00", align 1
@.str.192 = private unnamed_addr constant [62 x i8] c"must be one of nothing, matching, simple, upstream or current\00", align 1

; Function Attrs: inlinehint nounwind uwtable
define internal ptr @_(ptr noundef %0) #6 {
  %2 = alloca ptr, align 8
  %3 = alloca ptr, align 8
  store ptr %0, ptr %3, align 8, !tbaa !4
  %4 = load ptr, ptr %3, align 8, !tbaa !4
  %5 = load i8, ptr %4, align 1, !tbaa !9
  %6 = icmp ne i8 %5, 0
  br i1 %6, label %8, label %7

7:                                                ; preds = %1
  store ptr @.str.8, ptr %2, align 8
  br label %16

8:                                                ; preds = %1
  %9 = load i32, ptr @git_gettext_enabled, align 4, !tbaa !13
  %10 = icmp ne i32 %9, 0
  br i1 %10, label %13, label %11

11:                                               ; preds = %8
  %12 = load ptr, ptr %3, align 8, !tbaa !4
  store ptr %12, ptr %2, align 8
  br label %16

13:                                               ; preds = %8
  %14 = load ptr, ptr %3, align 8, !tbaa !4
  %15 = call ptr @dcgettext(ptr noundef null, ptr noundef %14, i32 noundef 5) #13
  store ptr %15, ptr %2, align 8
  br label %16

16:                                               ; preds = %13, %11, %7
  %17 = load ptr, ptr %2, align 8
  ret ptr %17
}

; Function Attrs: inlinehint nounwind uwtable
define internal i32 @const_error() #6 {
  ret i32 -1
}

; Function Attrs: nounwind uwtable
define dso_local i32 @config_error_nonbool(ptr noundef %0) #0 {
  %2 = alloca ptr, align 8
  store ptr %0, ptr %2, align 8, !tbaa !4
  %3 = call ptr @_(ptr noundef @.str.74)
  %4 = load ptr, ptr %2, align 8, !tbaa !4
  %5 = call i32 (ptr, ...) @error(ptr noundef %3, ptr noundef %4)
  %6 = call i32 @const_error()
  ret i32 %6
}

; Function Attrs: nounwind uwtable
define internal i32 @git_default_push_config(ptr noundef %0, ptr noundef %1) #0 {
  %3 = alloca i32, align 4
  %4 = alloca ptr, align 8
  %5 = alloca ptr, align 8
  store ptr %0, ptr %4, align 8, !tbaa !4
  store ptr %1, ptr %5, align 8, !tbaa !4
  %6 = load ptr, ptr %4, align 8, !tbaa !4
  %7 = call i32 @strcmp(ptr noundef %6, ptr noundef @.str.185) #14
  %8 = icmp ne i32 %7, 0
  br i1 %8, label %62, label %9

9:                                                ; preds = %2
  %10 = load ptr, ptr %5, align 8, !tbaa !4
  %11 = icmp ne ptr %10, null
  br i1 %11, label %16, label %12

12:                                               ; preds = %9
  %13 = load ptr, ptr %4, align 8, !tbaa !4
  %14 = call i32 @config_error_nonbool(ptr noundef %13)
  %15 = call i32 @const_error()
  store i32 %15, ptr %3, align 4
  br label %63

16:                                               ; preds = %9
  %17 = load ptr, ptr %5, align 8, !tbaa !4
  %18 = call i32 @strcmp(ptr noundef %17, ptr noundef @.str.186) #14
  %19 = icmp ne i32 %18, 0
  br i1 %19, label %21, label %20

20:                                               ; preds = %16
  store i32 0, ptr @push_default, align 4, !tbaa !13
  br label %60

21:                                               ; preds = %16
  %22 = load ptr, ptr %5, align 8, !tbaa !4
  %23 = call i32 @strcmp(ptr noundef %22, ptr noundef @.str.187) #14
  %24 = icmp ne i32 %23, 0
  br i1 %24, label %26, label %25

25:                                               ; preds = %21
  store i32 1, ptr @push_default, align 4, !tbaa !13
  br label %59

26:                                               ; preds = %21
  %27 = load ptr, ptr %5, align 8, !tbaa !4
  %28 = call i32 @strcmp(ptr noundef %27, ptr noundef @.str.180) #14
  %29 = icmp ne i32 %28, 0
  br i1 %29, label %31, label %30

30:                                               ; preds = %26
  store i32 2, ptr @push_default, align 4, !tbaa !13
  br label %58

31:                                               ; preds = %26
  %32 = load ptr, ptr %5, align 8, !tbaa !4
  %33 = call i32 @strcmp(ptr noundef %32, ptr noundef @.str.188) #14
  %34 = icmp ne i32 %33, 0
  br i1 %34, label %36, label %35

35:                                               ; preds = %31
  store i32 3, ptr @push_default, align 4, !tbaa !13
  br label %57

36:                                               ; preds = %31
  %37 = load ptr, ptr %5, align 8, !tbaa !4
  %38 = call i32 @strcmp(ptr noundef %37, ptr noundef @.str.189) #14
  %39 = icmp ne i32 %38, 0
  br i1 %39, label %41, label %40

40:                                               ; preds = %36
  store i32 3, ptr @push_default, align 4, !tbaa !13
  br label %56

41:                                               ; preds = %36
  %42 = load ptr, ptr %5, align 8, !tbaa !4
  %43 = call i32 @strcmp(ptr noundef %42, ptr noundef @.str.190) #14
  %44 = icmp ne i32 %43, 0
  br i1 %44, label %46, label %45

45:                                               ; preds = %41
  store i32 4, ptr @push_default, align 4, !tbaa !13
  br label %55

46:                                               ; preds = %41
  %47 = call ptr @_(ptr noundef @.str.191)
  %48 = load ptr, ptr %4, align 8, !tbaa !4
  %49 = load ptr, ptr %5, align 8, !tbaa !4
  %50 = call i32 (ptr, ...) @error(ptr noundef %47, ptr noundef %48, ptr noundef %49)
  %51 = call i32 @const_error()
  %52 = call ptr @_(ptr noundef @.str.192)
  %53 = call i32 (ptr, ...) @error(ptr noundef %52)
  %54 = call i32 @const_error()
  store i32 %54, ptr %3, align 4
  br label %63

55:                                               ; preds = %45
  br label %56

56:                                               ; preds = %55, %40
  br label %57

57:                                               ; preds = %56, %35
  br label %58

58:                                               ; preds = %57, %30
  br label %59

59:                                               ; preds = %58, %25
  br label %60

60:                                               ; preds = %59, %20
  br label %61

61:                                               ; preds = %60
  store i32 0, ptr %3, align 4
  br label %63

62:                                               ; preds = %2
  store i32 0, ptr %3, align 4
  br label %63

63:                                               ; preds = %62, %61, %46, %12
  %64 = load i32, ptr %3, align 4
  ret i32 %64
}