; Function Attrs: nounwind uwtable
define internal fastcc range(i32 -1, 1) i32 @git_default_push_config(ptr noundef %0, ptr noundef %1) unnamed_addr #0 {
  %3 = tail call i32 @strcmp(ptr noundef nonnull dereferenceable(1) %0, ptr noundef nonnull dereferenceable(13) @.str.185) #29
  %.not = icmp eq i32 %3, 0
  br i1 %.not, label %4, label %37

4:                                                ; preds = %2
  %.not12 = icmp eq ptr %1, null
  br i1 %.not12, label %5, label %10

5:                                                ; preds = %4
  %6 = load i32, ptr @git_gettext_enabled, align 4, !tbaa !14
  %.not4.i.i = icmp eq i32 %6, 0
  br i1 %.not4.i.i, label %config_error_nonbool.exit, label %7

7:                                                ; preds = %5
  %8 = tail call ptr @dcgettext(ptr noundef null, ptr noundef nonnull @.str.74, i32 noundef 5) #30
  br label %config_error_nonbool.exit

config_error_nonbool.exit:                        ; preds = %5, %7
  %.0.i.i = phi ptr [ %8, %7 ], [ @.str.74, %5 ]
  %9 = tail call i32 (ptr, ...) @error(ptr noundef %.0.i.i, ptr noundef nonnull %0) #30
  br label %37

10:                                               ; preds = %4
  %11 = tail call i32 @strcmp(ptr noundef nonnull dereferenceable(1) %1, ptr noundef nonnull dereferenceable(8) @.str.186) #29
  %.not13 = icmp eq i32 %11, 0
  br i1 %.not13, label %12, label %13

12:                                               ; preds = %10
  store i32 0, ptr @push_default, align 4, !tbaa !14
  br label %37

13:                                               ; preds = %10
  %14 = tail call i32 @strcmp(ptr noundef nonnull dereferenceable(1) %1, ptr noundef nonnull dereferenceable(9) @.str.187) #29
  %.not14 = icmp eq i32 %14, 0
  br i1 %.not14, label %15, label %16

15:                                               ; preds = %13
  store i32 1, ptr @push_default, align 4, !tbaa !14
  br label %37

16:                                               ; preds = %13
  %17 = tail call i32 @strcmp(ptr noundef nonnull dereferenceable(1) %1, ptr noundef nonnull dereferenceable(7) @.str.180) #29
  %.not15 = icmp eq i32 %17, 0
  br i1 %.not15, label %18, label %19

18:                                               ; preds = %16
  store i32 2, ptr @push_default, align 4, !tbaa !14
  br label %37

19:                                               ; preds = %16
  %20 = tail call i32 @strcmp(ptr noundef nonnull dereferenceable(1) %1, ptr noundef nonnull dereferenceable(9) @.str.188) #29
  %.not16 = icmp eq i32 %20, 0
  br i1 %.not16, label %21, label %22

21:                                               ; preds = %19
  store i32 3, ptr @push_default, align 4, !tbaa !14
  br label %37

22:                                               ; preds = %19
  %23 = tail call i32 @strcmp(ptr noundef nonnull dereferenceable(1) %1, ptr noundef nonnull dereferenceable(9) @.str.189) #29
  %.not17 = icmp eq i32 %23, 0
  br i1 %.not17, label %24, label %25

24:                                               ; preds = %22
  store i32 3, ptr @push_default, align 4, !tbaa !14
  br label %37

25:                                               ; preds = %22
  %26 = tail call i32 @strcmp(ptr noundef nonnull dereferenceable(1) %1, ptr noundef nonnull dereferenceable(8) @.str.190) #29
  %.not18 = icmp eq i32 %26, 0
  br i1 %.not18, label %27, label %28

27:                                               ; preds = %25
  store i32 4, ptr @push_default, align 4, !tbaa !14
  br label %37

28:                                               ; preds = %25
  %29 = load i32, ptr @git_gettext_enabled, align 4, !tbaa !14
  %.not4.i = icmp eq i32 %29, 0
  br i1 %.not4.i, label %_.exit, label %30

30:                                               ; preds = %28
  %31 = tail call ptr @dcgettext(ptr noundef null, ptr noundef nonnull @.str.191, i32 noundef 5) #30
  br label %_.exit

_.exit:                                           ; preds = %28, %30
  %.0.i = phi ptr [ %31, %30 ], [ @.str.191, %28 ]
  %32 = tail call i32 (ptr, ...) @error(ptr noundef %.0.i, ptr noundef nonnull %0, ptr noundef nonnull %1) #30
  %33 = load i32, ptr @git_gettext_enabled, align 4, !tbaa !14
  %.not4.i19 = icmp eq i32 %33, 0
  br i1 %.not4.i19, label %_.exit21, label %34

34:                                               ; preds = %_.exit
  %35 = tail call ptr @dcgettext(ptr noundef null, ptr noundef nonnull @.str.192, i32 noundef 5) #30
  br label %_.exit21

_.exit21:                                         ; preds = %_.exit, %34
  %.0.i20 = phi ptr [ %35, %34 ], [ @.str.192, %_.exit ]
  %36 = tail call i32 (ptr, ...) @error(ptr noundef %.0.i20) #30
  br label %37

37:                                               ; preds = %2, %15, %21, %27, %24, %18, %12, %_.exit21, %config_error_nonbool.exit
  %.0 = phi i32 [ -1, %_.exit21 ], [ -1, %config_error_nonbool.exit ], [ 0, %12 ], [ 0, %18 ], [ 0, %24 ], [ 0, %27 ], [ 0, %21 ], [ 0, %15 ], [ 0, %2 ]
  ret i32 %.0
}